; Function Attrs: nofree norecurse nosync nounwind memory(read, argmem: readwrite, inaccessiblemem: none) uwtable
define i32 @stbtt__get_svg(ptr noundef captures(none) %0) local_unnamed_addr #3 {
  %2 = getelementptr inbounds nuw i8, ptr %0, i64 52
  %3 = load i32, ptr %2, align 4, !tbaa !21
  %4 = icmp slt i32 %3, 0
  br i1 %4, label %5, label %81

5:                                                ; preds = %1
  %6 = getelementptr inbounds nuw i8, ptr %0, i64 8
  %7 = load ptr, ptr %6, align 8, !tbaa !23
  %8 = getelementptr inbounds nuw i8, ptr %0, i64 16
  %9 = load i32, ptr %8, align 8, !tbaa !24
  %10 = zext i32 %9 to i64
  %11 = getelementptr inbounds nuw i8, ptr %7, i64 %10
  %12 = getelementptr inbounds nuw i8, ptr %11, i64 4
  %13 = load i8, ptr %12, align 1, !tbaa !12
  %14 = zext i8 %13 to i32
  %15 = shl nuw nsw i32 %14, 8
  %16 = getelementptr inbounds nuw i8, ptr %11, i64 5
  %17 = load i8, ptr %16, align 1, !tbaa !12
  %18 = zext i8 %17 to i32
  %19 = or disjoint i32 %15, %18
  %20 = add i32 %9, 12
  %.not.i = icmp eq i32 %19, 0
  br i1 %.not.i, label %.sink.split, label %.lr.ph.i

.lr.ph.i:                                         ; preds = %5
  %wide.trip.count.i = zext nneg i32 %19 to i64
  br label %21

21:                                               ; preds = %40, %.lr.ph.i
  %indvars.iv.i = phi i64 [ 0, %.lr.ph.i ], [ %indvars.iv.next.i, %40 ]
  %indvars.iv.tr.i = trunc i64 %indvars.iv.i to i32
  %22 = shl i32 %indvars.iv.tr.i, 4
  %23 = add i32 %20, %22
  %24 = zext i32 %23 to i64
  %25 = getelementptr inbounds nuw i8, ptr %7, i64 %24
  %26 = load i8, ptr %25, align 1, !tbaa !12
  %27 = icmp eq i8 %26, 83
  br i1 %27, label %28, label %40

28:                                               ; preds = %21
  %29 = getelementptr inbounds nuw i8, ptr %25, i64 1
  %30 = load i8, ptr %29, align 1, !tbaa !12
  %31 = icmp eq i8 %30, 86
  br i1 %31, label %32, label %40

32:                                               ; preds = %28
  %33 = getelementptr inbounds nuw i8, ptr %25, i64 2
  %34 = load i8, ptr %33, align 1, !tbaa !12
  %35 = icmp eq i8 %34, 71
  br i1 %35, label %36, label %40

36:                                               ; preds = %32
  %37 = getelementptr inbounds nuw i8, ptr %25, i64 3
  %38 = load i8, ptr %37, align 1, !tbaa !12
  %39 = icmp eq i8 %38, 32
  br i1 %39, label %stbtt__find_table.exit, label %40

40:                                               ; preds = %36, %32, %28, %21
  %indvars.iv.next.i = add nuw nsw i64 %indvars.iv.i, 1
  %exitcond.not.i = icmp eq i64 %indvars.iv.next.i, %wide.trip.count.i
  br i1 %exitcond.not.i, label %.sink.split, label %21, !llvm.loop !19

stbtt__find_table.exit:                           ; preds = %36
  %41 = getelementptr inbounds nuw i8, ptr %25, i64 8
  %42 = load i8, ptr %41, align 1, !tbaa !12
  %43 = zext i8 %42 to i32
  %44 = shl nuw i32 %43, 24
  %45 = getelementptr inbounds nuw i8, ptr %25, i64 9
  %46 = load i8, ptr %45, align 1, !tbaa !12
  %47 = zext i8 %46 to i32
  %48 = shl nuw nsw i32 %47, 16
  %49 = or disjoint i32 %48, %44
  %50 = getelementptr inbounds nuw i8, ptr %25, i64 10
  %51 = load i8, ptr %50, align 1, !tbaa !12
  %52 = zext i8 %51 to i32
  %53 = shl nuw nsw i32 %52, 8
  %54 = or disjoint i32 %49, %53
  %55 = getelementptr inbounds nuw i8, ptr %25, i64 11
  %56 = load i8, ptr %55, align 1, !tbaa !12
  %57 = zext i8 %56 to i32
  %58 = or disjoint i32 %54, %57
  %.not = icmp eq i32 %58, 0
  br i1 %.not, label %.sink.split, label %59

59:                                               ; preds = %stbtt__find_table.exit
  %60 = zext i32 %58 to i64
  %61 = getelementptr inbounds nuw i8, ptr %7, i64 %60
  %62 = getelementptr inbounds nuw i8, ptr %61, i64 2
  %63 = load i8, ptr %62, align 1, !tbaa !12
  %64 = zext i8 %63 to i32
  %65 = shl nuw i32 %64, 24
  %66 = getelementptr inbounds nuw i8, ptr %61, i64 3
  %67 = load i8, ptr %66, align 1, !tbaa !12
  %68 = zext i8 %67 to i32
  %69 = shl nuw nsw i32 %68, 16
  %70 = or disjoint i32 %69, %65
  %71 = getelementptr inbounds nuw i8, ptr %61, i64 4
  %72 = load i8, ptr %71, align 1, !tbaa !12
  %73 = zext i8 %72 to i32
  %74 = shl nuw nsw i32 %73, 8
  %75 = or disjoint i32 %70, %74
  %76 = getelementptr inbounds nuw i8, ptr %61, i64 5
  %77 = load i8, ptr %76, align 1, !tbaa !12
  %78 = zext i8 %77 to i32
  %79 = or disjoint i32 %75, %78
  %80 = add i32 %79, %58
  br label %.sink.split

.sink.split:                                      ; preds = %40, %stbtt__find_table.exit, %5, %59
  %.sink = phi i32 [ %80, %59 ], [ 0, %5 ], [ 0, %stbtt__find_table.exit ], [ 0, %40 ]
  store i32 %.sink, ptr %2, align 4, !tbaa !21
  br label %81

81:                                               ; preds = %.sink.split, %1
  %82 = phi i32 [ %3, %1 ], [ %.sink, %.sink.split ]
  ret i32 %82
}